; Function Attrs: mustprogress uwtable
define void @_ZN4LIEF2PE10RichHeaderC2Ev(ptr noundef nonnull align 8 dereferenceable(40) %0) unnamed_addr #3 align 2 {
  tail call void @_ZN4LIEF6ObjectC2Ev(ptr noundef nonnull align 8 dereferenceable(8) %0)
  store ptr getelementptr inbounds ({ [7 x ptr] }, ptr @_ZTVN4LIEF2PE10RichHeaderE, i64 0, i32 0, i64 2), ptr %0, align 8
  %2 = getelementptr inbounds i8, ptr %0, i64 8
  store i32 0, ptr %2, align 8
  %3 = getelementptr inbounds i8, ptr %0, i64 16
  tail call void @llvm.memset.p0.i64(ptr noundef nonnull align 8 dereferenceable(24) %3, i8 0, i64 24, i1 false)
  ret void
}